target datalayout = "e-m:e-p270:32:32-p271:32:32-p272:64:64-i64:64-i128:128-f80:128-n8:16:32:64-S128"
target triple = "x86_64-pc-linux-gnu"

@hf_drda_pkgcnstkn = internal global i32 0, align 4

; Function Attrs: null_pointer_is_valid sspstrong uwtable
define internal i32 @dissect_drda_pkgnamct(ptr noundef %0, ptr noundef %1, ptr noundef %2, ptr noundef %3) #0 {
  %5 = alloca ptr, align 8
  %6 = alloca ptr, align 8
  %7 = alloca ptr, align 8
  %8 = alloca ptr, align 8
  %9 = alloca i32, align 4
  store ptr %0, ptr %5, align 8
  store ptr %1, ptr %6, align 8
  store ptr %2, ptr %7, align 8
  store ptr %3, ptr %8, align 8
  call void @llvm.lifetime.start.p0(i64 4, ptr %9) #9
  %10 = load ptr, ptr %5, align 8
  %11 = load ptr, ptr %5, align 8
  %12 = call i32 @tvb_reported_length_remaining(ptr noundef %11, i32 noundef 8)
  %13 = call ptr @tvb_new_subset_length(ptr noundef %10, i32 noundef 0, i32 noundef %12)
  %14 = load ptr, ptr %6, align 8
  %15 = load ptr, ptr %7, align 8
  %16 = load ptr, ptr %8, align 8
  %17 = call i32 @dissect_drda_pkgnam(ptr noundef %13, ptr noundef %14, ptr noundef %15, ptr noundef %16)
  store i32 %17, ptr %9, align 4
  %18 = load ptr, ptr %7, align 8
  %19 = load i32, ptr @hf_drda_pkgcnstkn, align 4
  %20 = load ptr, ptr %5, align 8
  %21 = load i32, ptr %9, align 4
  %22 = call ptr @proto_tree_add_item(ptr noundef %18, i32 noundef %19, ptr noundef %20, i32 noundef %21, i32 noundef 8, i32 noundef 2)
  %23 = load i32, ptr %9, align 4
  %24 = add i32 %23, 8
  store i32 %24, ptr %9, align 4
  %25 = load i32, ptr %9, align 4
  call void @llvm.lifetime.end.p0(i64 4, ptr %9) #9
  ret i32 %25
}