; Function Attrs: null_pointer_is_valid sspstrong uwtable
define internal noundef i32 @dissect_drda_pkgnamct(ptr noundef %0, ptr noundef %1, ptr noundef %2, ptr readnone captures(none) %3) #0 {
  %5 = tail call i32 @tvb_reported_length_remaining(ptr noundef %0, i32 noundef 8)
  %6 = tail call ptr @tvb_new_subset_length(ptr noundef %0, i32 noundef 0, i32 noundef %5)
  %7 = tail call i32 @dissect_drda_pkgnam(ptr noundef %6, ptr noundef %1, ptr noundef %2, ptr poison)
  %8 = load i32, ptr @hf_drda_pkgcnstkn, align 4
  %9 = tail call ptr @proto_tree_add_item(ptr noundef %2, i32 noundef %8, ptr noundef %0, i32 noundef %7, i32 noundef 8, i32 noundef 2)
  %10 = add i32 %7, 8
  ret i32 %10
}